target datalayout = "e-m:e-p270:32:32-p271:32:32-p272:64:64-i64:64-i128:128-f80:128-n8:16:32:64-S128"
target triple = "x86_64-pc-linux-gnu"

%"class.std::_Function_base" = type { %"union.std::_Any_data", ptr }
%"union.std::_Any_data" = type { %"union.std::_Nocopy_types" }
%"union.std::_Nocopy_types" = type { { i64, i64 } }
%"struct.folly::test::DSchedThreadId" = type { i32 }
%"struct.folly::test::(anonymous namespace)::PerThreadState" = type { ptr, ptr, i8, %"struct.folly::test::DSchedThreadId", %"class.std::function.59" }
%"class.std::function.59" = type { %"class.std::_Function_base", ptr }
%"struct.folly::SingletonThreadLocal<folly::test::(anonymous namespace)::PerThreadState>::ObjectWrapper" = type { %"struct.folly::test::(anonymous namespace)::PerThreadState" }

@__dso_handle = external hidden global i8
@_ZGVZN5folly20SingletonThreadLocalINS_4test12_GLOBAL__N_114PerThreadStateENS_6detail10DefaultTagENS4_11DefaultMakeIS3_EEvE7getSlowERNS4_25SingletonThreadLocalState10LocalCacheEE8lifetime = internal thread_local global i8 0, align 1

; Function Attrs: mustprogress noinline uwtable
define internal noundef nonnull align 8 dereferenceable(168) ptr @_ZN5folly20SingletonThreadLocalINS_4test12_GLOBAL__N_114PerThreadStateENS_6detail10DefaultTagENS4_11DefaultMakeIS3_EEvE7getSlowERNS4_25SingletonThreadLocalState10LocalCacheE(ptr noundef nonnull align 8 dereferenceable(8) %0) #16 align 2 {
  %2 = alloca ptr, align 8
  %3 = alloca ptr, align 8
  %4 = alloca ptr, align 8
  %5 = alloca i32, align 4
  store ptr %0, ptr %3, align 8, !tbaa !258
  call void @llvm.lifetime.start.p0(i64 8, ptr %4) #2
  %6 = call noundef nonnull align 8 dereferenceable(168) ptr @_ZN5folly20SingletonThreadLocalINS_4test12_GLOBAL__N_114PerThreadStateENS_6detail10DefaultTagENS4_11DefaultMakeIS3_EEvE10getWrapperEv()
  store ptr %6, ptr %4, align 8, !tbaa !260
  %7 = call noundef zeroext i1 @_ZN5folly18threadlocal_detail14StaticMetaBase5dyingEv()
  br i1 %7, label %8, label %10

8:                                                ; preds = %1
  %9 = load ptr, ptr %4, align 8, !tbaa !260
  store ptr %9, ptr %2, align 8
  store i32 1, ptr %5, align 4
  br label %23

10:                                               ; preds = %1
  %11 = load i8, ptr @_ZGVZN5folly20SingletonThreadLocalINS_4test12_GLOBAL__N_114PerThreadStateENS_6detail10DefaultTagENS4_11DefaultMakeIS3_EEvE7getSlowERNS4_25SingletonThreadLocalState10LocalCacheEE8lifetime, align 1
  %12 = icmp eq i8 %11, 0
  br i1 %12, label %13, label %15, !prof !262

13:                                               ; preds = %10
  %14 = call i32 @__cxa_thread_atexit(ptr @_ZN5folly20SingletonThreadLocalINS_4test12_GLOBAL__N_114PerThreadStateENS_6detail10DefaultTagENS4_11DefaultMakeIS3_EEvE13LocalLifetimeD2Ev, ptr @_ZZN5folly20SingletonThreadLocalINS_4test12_GLOBAL__N_114PerThreadStateENS_6detail10DefaultTagENS4_11DefaultMakeIS3_EEvE7getSlowERNS4_25SingletonThreadLocalState10LocalCacheEE8lifetime, ptr @__dso_handle) #2
  store i8 1, ptr @_ZGVZN5folly20SingletonThreadLocalINS_4test12_GLOBAL__N_114PerThreadStateENS_6detail10DefaultTagENS4_11DefaultMakeIS3_EEvE7getSlowERNS4_25SingletonThreadLocalState10LocalCacheEE8lifetime, align 1
  br label %15

15:                                               ; preds = %13, %10
  %16 = call align 1 ptr @llvm.threadlocal.address.p0(ptr align 1 @_ZZN5folly20SingletonThreadLocalINS_4test12_GLOBAL__N_114PerThreadStateENS_6detail10DefaultTagENS4_11DefaultMakeIS3_EEvE7getSlowERNS4_25SingletonThreadLocalState10LocalCacheEE8lifetime)
  %17 = load ptr, ptr %3, align 8, !tbaa !258
  %18 = load ptr, ptr %4, align 8, !tbaa !260
  %19 = getelementptr inbounds i8, ptr %18, i64 56
  %20 = load ptr, ptr %4, align 8, !tbaa !260
  %21 = getelementptr inbounds nuw %"struct.folly::SingletonThreadLocal<folly::test::(anonymous namespace)::PerThreadState>::ObjectWrapper", ptr %20, i32 0, i32 0
  call void @_ZN5folly6detail25SingletonThreadLocalState13LocalLifetime5trackERNS1_10LocalCacheERNS1_8TrackingEPv(ptr noundef nonnull align 1 dereferenceable(1) %16, ptr noundef nonnull align 8 dereferenceable(8) %17, ptr noundef nonnull align 8 dereferenceable(112) %19, ptr noundef %21) #2
  %22 = load ptr, ptr %4, align 8, !tbaa !260
  store ptr %22, ptr %2, align 8
  store i32 1, ptr %5, align 4
  br label %23

23:                                               ; preds = %15, %8
  call void @llvm.lifetime.end.p0(i64 8, ptr %4) #2
  %24 = load ptr, ptr %2, align 8
  ret ptr %24
}