; Function Attrs: mustprogress noinline uwtable
define internal fastcc noundef nonnull align 8 dereferenceable(168) ptr @_ZN5folly20SingletonThreadLocalINS_4test12_GLOBAL__N_114PerThreadStateENS_6detail10DefaultTagENS4_11DefaultMakeIS3_EEvE7getSlowERNS4_25SingletonThreadLocalState10LocalCacheE(ptr noundef nonnull align 8 dereferenceable(8) %0) unnamed_addr #16 align 2 {
  %2 = tail call fastcc noundef nonnull align 8 dereferenceable(168) ptr @_ZN5folly20SingletonThreadLocalINS_4test12_GLOBAL__N_114PerThreadStateENS_6detail10DefaultTagENS4_11DefaultMakeIS3_EEvE10getWrapperEv()
  %3 = tail call noundef zeroext i1 @_ZN5folly18threadlocal_detail14StaticMetaBase5dyingEv()
  br i1 %3, label %10, label %4

4:                                                ; preds = %1
  %.b = load i1, ptr @_ZGVZN5folly20SingletonThreadLocalINS_4test12_GLOBAL__N_114PerThreadStateENS_6detail10DefaultTagENS4_11DefaultMakeIS3_EEvE7getSlowERNS4_25SingletonThreadLocalState10LocalCacheEE8lifetime, align 1
  br i1 %.b, label %7, label %5, !prof !111

5:                                                ; preds = %4
  %6 = tail call i32 @__cxa_thread_atexit(ptr nonnull @_ZN5folly20SingletonThreadLocalINS_4test12_GLOBAL__N_114PerThreadStateENS_6detail10DefaultTagENS4_11DefaultMakeIS3_EEvE13LocalLifetimeD2Ev, ptr nonnull @_ZZN5folly20SingletonThreadLocalINS_4test12_GLOBAL__N_114PerThreadStateENS_6detail10DefaultTagENS4_11DefaultMakeIS3_EEvE7getSlowERNS4_25SingletonThreadLocalState10LocalCacheEE8lifetime, ptr nonnull @__dso_handle) #18
  store i1 true, ptr @_ZGVZN5folly20SingletonThreadLocalINS_4test12_GLOBAL__N_114PerThreadStateENS_6detail10DefaultTagENS4_11DefaultMakeIS3_EEvE7getSlowERNS4_25SingletonThreadLocalState10LocalCacheEE8lifetime, align 1
  br label %7

7:                                                ; preds = %5, %4
  %8 = tail call align 1 ptr @llvm.threadlocal.address.p0(ptr align 1 @_ZZN5folly20SingletonThreadLocalINS_4test12_GLOBAL__N_114PerThreadStateENS_6detail10DefaultTagENS4_11DefaultMakeIS3_EEvE7getSlowERNS4_25SingletonThreadLocalState10LocalCacheEE8lifetime)
  %9 = getelementptr inbounds nuw i8, ptr %2, i64 56
  tail call void @_ZN5folly6detail25SingletonThreadLocalState13LocalLifetime5trackERNS1_10LocalCacheERNS1_8TrackingEPv(ptr noundef nonnull align 1 dereferenceable(1) %8, ptr noundef nonnull align 8 dereferenceable(8) %0, ptr noundef nonnull align 8 dereferenceable(112) %9, ptr noundef nonnull %2) #18
  br label %10

10:                                               ; preds = %1, %7
  ret ptr %2
}